; Function Attrs: mustprogress uwtable
define hidden noundef nonnull align 8 dereferenceable(24) ptr @_ZN6google8protobuf15UnknownFieldSet16default_instanceEv() local_unnamed_addr #3 align 2 personality ptr @__gxx_personality_v0 {
  %1 = load atomic i8, ptr @_ZGVZN6google8protobuf15UnknownFieldSet16default_instanceEvE8instance acquire, align 8
  %2 = icmp eq i8 %1, 0
  br i1 %2, label %3, label %8, !prof !3

3:                                                ; preds = %0
  %4 = tail call i32 @__cxa_guard_acquire(ptr nonnull @_ZGVZN6google8protobuf15UnknownFieldSet16default_instanceEvE8instance) #17
  %.not = icmp eq i32 %4, 0
  br i1 %.not, label %8, label %5

5:                                                ; preds = %3
  %6 = invoke noalias noundef nonnull dereferenceable(24) ptr @_Znwm(i64 noundef 24) #18
          to label %7 unwind label %10

7:                                                ; preds = %5
  tail call void @llvm.memset.p0.i64(ptr noundef nonnull align 8 dereferenceable(24) %6, i8 0, i64 24, i1 false)
  invoke void @_ZN6google8protobuf8internal13OnShutdownRunEPFvPKvES3_(ptr noundef nonnull @_ZZN6google8protobuf8internal16OnShutdownDeleteINS0_15UnknownFieldSetEEEPT_S5_ENUlPKvE_8__invokeES7_, ptr noundef nonnull %6)
          to label %_ZN6google8protobuf8internal16OnShutdownDeleteINS0_15UnknownFieldSetEEEPT_S5_.exit unwind label %10

_ZN6google8protobuf8internal16OnShutdownDeleteINS0_15UnknownFieldSetEEEPT_S5_.exit: ; preds = %7
  store ptr %6, ptr @_ZZN6google8protobuf15UnknownFieldSet16default_instanceEvE8instance, align 8, !tbaa !4
  tail call void @__cxa_guard_release(ptr nonnull @_ZGVZN6google8protobuf15UnknownFieldSet16default_instanceEvE8instance) #17
  br label %8

8:                                                ; preds = %_ZN6google8protobuf8internal16OnShutdownDeleteINS0_15UnknownFieldSetEEEPT_S5_.exit, %3, %0
  %9 = load ptr, ptr @_ZZN6google8protobuf15UnknownFieldSet16default_instanceEvE8instance, align 8, !tbaa !4
  ret ptr %9

10:                                               ; preds = %7, %5
  %11 = landingpad { ptr, i32 }
          cleanup
  tail call void @__cxa_guard_abort(ptr nonnull @_ZGVZN6google8protobuf15UnknownFieldSet16default_instanceEvE8instance) #17
  resume { ptr, i32 } %11
}